; Function Attrs: cold nounwind uwtable
define internal fastcc void @test3() unnamed_addr #6 {
  %1 = load ptr, ptr @stdout, align 8, !tbaa !4
  %2 = tail call i64 @fwrite(ptr nonnull @.str.28, i64 49, i64 1, ptr %1)
  %3 = load ptr, ptr @stderr, align 8, !tbaa !4
  %4 = tail call i64 @fwrite(ptr nonnull @.str.29, i64 49, i64 1, ptr %3) #14
  %5 = load ptr, ptr @stdout, align 8, !tbaa !4
  %6 = tail call i32 @fflush(ptr noundef %5)
  %7 = load ptr, ptr @stderr, align 8, !tbaa !4
  %8 = tail call i32 @fflush(ptr noundef %7)
  %9 = tail call i32 @sleep(i32 noundef 15) #13
  %10 = load ptr, ptr @stdout, align 8, !tbaa !4
  %11 = tail call i64 @fwrite(ptr nonnull @.str.30, i64 48, i64 1, ptr %10)
  %12 = load ptr, ptr @stderr, align 8, !tbaa !4
  %13 = tail call i64 @fwrite(ptr nonnull @.str.31, i64 48, i64 1, ptr %12) #14
  ret void
}